(dp0
Vengine
p1
S'pdflatex'
p2
sVpackages
p3
c__builtin__
set
p4
((lp5
Vurl
p6
aVpslatex
p7
aVlistings
p8
aVgraphicx
p9
atp10
Rp11
sVfiles_with_guttermarks
p12
g4
((lp13
S'manual.tex'
p14
aV/Users/ZhaoweiTan/Documents/Courses/14-15_spring/machine_learning/project/manual/manual.tex
p15
aV/Users/ZhaoweiTan/Documents/Courses/14-15_spring/machine_learning/project/manual/./manual.tex
p16
atp17
Rp18
sVsynctex
p19
I01
s.