(dp0
Vengine
p1
Vpdflatex
p2
sVpackages
p3
c__builtin__
set
p4
((lp5
Vpslatex
p6
aVlistings
p7
atp8
Rp9
sVfiles_with_guttermarks
p10
g4
((lp11
S'title_page_4.tex'
p12
aV/Users/ZhaoweiTan/Documents/Courses/14-15_spring/machine_learning/project/manual/./title_page_4.tex
p13
atp14
Rp15
sVsynctex
p16
I01
s.